target datalayout = "e-m:e-p270:32:32-p271:32:32-p272:64:64-i64:64-i128:128-f80:128-n8:16:32:64-S128"
target triple = "x86_64-pc-linux-gnu"

; Function Attrs: nounwind uwtable
define internal void @ivi_mc_4x4_delta(ptr noundef %0, i64 noundef %1, ptr noundef %2, i64 noundef %3, i32 noundef %4) #0 {
  %6 = alloca ptr, align 8
  %7 = alloca i64, align 8
  %8 = alloca ptr, align 8
  %9 = alloca i64, align 8
  %10 = alloca i32, align 4
  %11 = alloca i32, align 4
  %12 = alloca i32, align 4
  %13 = alloca ptr, align 8
  store ptr %0, ptr %6, align 8, !tbaa !30
  store i64 %1, ptr %7, align 8, !tbaa !11
  store ptr %2, ptr %8, align 8, !tbaa !30
  store i64 %3, ptr %9, align 8, !tbaa !11
  store i32 %4, ptr %10, align 4, !tbaa !13
  call void @llvm.lifetime.start.p0(i64 4, ptr %11) #4
  call void @llvm.lifetime.start.p0(i64 4, ptr %12) #4
  call void @llvm.lifetime.start.p0(i64 8, ptr %13) #4
  %14 = load i32, ptr %10, align 4, !tbaa !13
  switch i32 %14, label %216 [
    i32 0, label %15
    i32 1, label %52
    i32 2, label %98
    i32 3, label %149
  ]

15:                                               ; preds = %5
  store i32 0, ptr %11, align 4, !tbaa !13
  br label %16

16:                                               ; preds = %42, %15
  %17 = load i32, ptr %11, align 4, !tbaa !13
  %18 = icmp slt i32 %17, 4
  br i1 %18, label %19, label %51

19:                                               ; preds = %16
  store i32 0, ptr %12, align 4, !tbaa !13
  br label %20

20:                                               ; preds = %38, %19
  %21 = load i32, ptr %12, align 4, !tbaa !13
  %22 = icmp slt i32 %21, 4
  br i1 %22, label %23, label %41

23:                                               ; preds = %20
  %24 = load ptr, ptr %8, align 8, !tbaa !30
  %25 = load i32, ptr %12, align 4, !tbaa !13
  %26 = sext i32 %25 to i64
  %27 = getelementptr inbounds i16, ptr %24, i64 %26
  %28 = load i16, ptr %27, align 2, !tbaa !32
  %29 = sext i16 %28 to i32
  %30 = load ptr, ptr %6, align 8, !tbaa !30
  %31 = load i32, ptr %12, align 4, !tbaa !13
  %32 = sext i32 %31 to i64
  %33 = getelementptr inbounds i16, ptr %30, i64 %32
  %34 = load i16, ptr %33, align 2, !tbaa !32
  %35 = sext i16 %34 to i32
  %36 = add nsw i32 %35, %29
  %37 = trunc i32 %36 to i16
  store i16 %37, ptr %33, align 2, !tbaa !32
  br label %38

38:                                               ; preds = %23
  %39 = load i32, ptr %12, align 4, !tbaa !13
  %40 = add nsw i32 %39, 1
  store i32 %40, ptr %12, align 4, !tbaa !13
  br label %20, !llvm.loop !94

41:                                               ; preds = %20
  br label %42

42:                                               ; preds = %41
  %43 = load i32, ptr %11, align 4, !tbaa !13
  %44 = add nsw i32 %43, 1
  store i32 %44, ptr %11, align 4, !tbaa !13
  %45 = load i64, ptr %7, align 8, !tbaa !11
  %46 = load ptr, ptr %6, align 8, !tbaa !30
  %47 = getelementptr inbounds i16, ptr %46, i64 %45
  store ptr %47, ptr %6, align 8, !tbaa !30
  %48 = load i64, ptr %9, align 8, !tbaa !11
  %49 = load ptr, ptr %8, align 8, !tbaa !30
  %50 = getelementptr inbounds i16, ptr %49, i64 %48
  store ptr %50, ptr %8, align 8, !tbaa !30
  br label %16, !llvm.loop !95

51:                                               ; preds = %16
  br label %216

52:                                               ; preds = %5
  store i32 0, ptr %11, align 4, !tbaa !13
  br label %53

53:                                               ; preds = %88, %52
  %54 = load i32, ptr %11, align 4, !tbaa !13
  %55 = icmp slt i32 %54, 4
  br i1 %55, label %56, label %97

56:                                               ; preds = %53
  store i32 0, ptr %12, align 4, !tbaa !13
  br label %57

57:                                               ; preds = %84, %56
  %58 = load i32, ptr %12, align 4, !tbaa !13
  %59 = icmp slt i32 %58, 4
  br i1 %59, label %60, label %87

60:                                               ; preds = %57
  %61 = load ptr, ptr %8, align 8, !tbaa !30
  %62 = load i32, ptr %12, align 4, !tbaa !13
  %63 = sext i32 %62 to i64
  %64 = getelementptr inbounds i16, ptr %61, i64 %63
  %65 = load i16, ptr %64, align 2, !tbaa !32
  %66 = sext i16 %65 to i32
  %67 = load ptr, ptr %8, align 8, !tbaa !30
  %68 = load i32, ptr %12, align 4, !tbaa !13
  %69 = add nsw i32 %68, 1
  %70 = sext i32 %69 to i64
  %71 = getelementptr inbounds i16, ptr %67, i64 %70
  %72 = load i16, ptr %71, align 2, !tbaa !32
  %73 = sext i16 %72 to i32
  %74 = add nsw i32 %66, %73
  %75 = ashr i32 %74, 1
  %76 = load ptr, ptr %6, align 8, !tbaa !30
  %77 = load i32, ptr %12, align 4, !tbaa !13
  %78 = sext i32 %77 to i64
  %79 = getelementptr inbounds i16, ptr %76, i64 %78
  %80 = load i16, ptr %79, align 2, !tbaa !32
  %81 = sext i16 %80 to i32
  %82 = add nsw i32 %81, %75
  %83 = trunc i32 %82 to i16
  store i16 %83, ptr %79, align 2, !tbaa !32
  br label %84

84:                                               ; preds = %60
  %85 = load i32, ptr %12, align 4, !tbaa !13
  %86 = add nsw i32 %85, 1
  store i32 %86, ptr %12, align 4, !tbaa !13
  br label %57, !llvm.loop !96

87:                                               ; preds = %57
  br label %88

88:                                               ; preds = %87
  %89 = load i32, ptr %11, align 4, !tbaa !13
  %90 = add nsw i32 %89, 1
  store i32 %90, ptr %11, align 4, !tbaa !13
  %91 = load i64, ptr %7, align 8, !tbaa !11
  %92 = load ptr, ptr %6, align 8, !tbaa !30
  %93 = getelementptr inbounds i16, ptr %92, i64 %91
  store ptr %93, ptr %6, align 8, !tbaa !30
  %94 = load i64, ptr %9, align 8, !tbaa !11
  %95 = load ptr, ptr %8, align 8, !tbaa !30
  %96 = getelementptr inbounds i16, ptr %95, i64 %94
  store ptr %96, ptr %8, align 8, !tbaa !30
  br label %53, !llvm.loop !97

97:                                               ; preds = %53
  br label %216

98:                                               ; preds = %5
  %99 = load ptr, ptr %8, align 8, !tbaa !30
  %100 = load i64, ptr %9, align 8, !tbaa !11
  %101 = getelementptr inbounds i16, ptr %99, i64 %100
  store ptr %101, ptr %13, align 8, !tbaa !30
  store i32 0, ptr %11, align 4, !tbaa !13
  br label %102

102:                                              ; preds = %136, %98
  %103 = load i32, ptr %11, align 4, !tbaa !13
  %104 = icmp slt i32 %103, 4
  br i1 %104, label %105, label %148

105:                                              ; preds = %102
  store i32 0, ptr %12, align 4, !tbaa !13
  br label %106

106:                                              ; preds = %132, %105
  %107 = load i32, ptr %12, align 4, !tbaa !13
  %108 = icmp slt i32 %107, 4
  br i1 %108, label %109, label %135

109:                                              ; preds = %106
  %110 = load ptr, ptr %8, align 8, !tbaa !30
  %111 = load i32, ptr %12, align 4, !tbaa !13
  %112 = sext i32 %111 to i64
  %113 = getelementptr inbounds i16, ptr %110, i64 %112
  %114 = load i16, ptr %113, align 2, !tbaa !32
  %115 = sext i16 %114 to i32
  %116 = load ptr, ptr %13, align 8, !tbaa !30
  %117 = load i32, ptr %12, align 4, !tbaa !13
  %118 = sext i32 %117 to i64
  %119 = getelementptr inbounds i16, ptr %116, i64 %118
  %120 = load i16, ptr %119, align 2, !tbaa !32
  %121 = sext i16 %120 to i32
  %122 = add nsw i32 %115, %121
  %123 = ashr i32 %122, 1
  %124 = load ptr, ptr %6, align 8, !tbaa !30
  %125 = load i32, ptr %12, align 4, !tbaa !13
  %126 = sext i32 %125 to i64
  %127 = getelementptr inbounds i16, ptr %124, i64 %126
  %128 = load i16, ptr %127, align 2, !tbaa !32
  %129 = sext i16 %128 to i32
  %130 = add nsw i32 %129, %123
  %131 = trunc i32 %130 to i16
  store i16 %131, ptr %127, align 2, !tbaa !32
  br label %132

132:                                              ; preds = %109
  %133 = load i32, ptr %12, align 4, !tbaa !13
  %134 = add nsw i32 %133, 1
  store i32 %134, ptr %12, align 4, !tbaa !13
  br label %106, !llvm.loop !98

135:                                              ; preds = %106
  br label %136

136:                                              ; preds = %135
  %137 = load i32, ptr %11, align 4, !tbaa !13
  %138 = add nsw i32 %137, 1
  store i32 %138, ptr %11, align 4, !tbaa !13
  %139 = load i64, ptr %7, align 8, !tbaa !11
  %140 = load ptr, ptr %6, align 8, !tbaa !30
  %141 = getelementptr inbounds i16, ptr %140, i64 %139
  store ptr %141, ptr %6, align 8, !tbaa !30
  %142 = load i64, ptr %9, align 8, !tbaa !11
  %143 = load ptr, ptr %13, align 8, !tbaa !30
  %144 = getelementptr inbounds i16, ptr %143, i64 %142
  store ptr %144, ptr %13, align 8, !tbaa !30
  %145 = load i64, ptr %9, align 8, !tbaa !11
  %146 = load ptr, ptr %8, align 8, !tbaa !30
  %147 = getelementptr inbounds i16, ptr %146, i64 %145
  store ptr %147, ptr %8, align 8, !tbaa !30
  br label %102, !llvm.loop !99

148:                                              ; preds = %102
  br label %216

149:                                              ; preds = %5
  %150 = load ptr, ptr %8, align 8, !tbaa !30
  %151 = load i64, ptr %9, align 8, !tbaa !11
  %152 = getelementptr inbounds i16, ptr %150, i64 %151
  store ptr %152, ptr %13, align 8, !tbaa !30
  store i32 0, ptr %11, align 4, !tbaa !13
  br label %153

153:                                              ; preds = %203, %149
  %154 = load i32, ptr %11, align 4, !tbaa !13
  %155 = icmp slt i32 %154, 4
  br i1 %155, label %156, label %215

156:                                              ; preds = %153
  store i32 0, ptr %12, align 4, !tbaa !13
  br label %157

157:                                              ; preds = %199, %156
  %158 = load i32, ptr %12, align 4, !tbaa !13
  %159 = icmp slt i32 %158, 4
  br i1 %159, label %160, label %202

160:                                              ; preds = %157
  %161 = load ptr, ptr %8, align 8, !tbaa !30
  %162 = load i32, ptr %12, align 4, !tbaa !13
  %163 = sext i32 %162 to i64
  %164 = getelementptr inbounds i16, ptr %161, i64 %163
  %165 = load i16, ptr %164, align 2, !tbaa !32
  %166 = sext i16 %165 to i32
  %167 = load ptr, ptr %8, align 8, !tbaa !30
  %168 = load i32, ptr %12, align 4, !tbaa !13
  %169 = add nsw i32 %168, 1
  %170 = sext i32 %169 to i64
  %171 = getelementptr inbounds i16, ptr %167, i64 %170
  %172 = load i16, ptr %171, align 2, !tbaa !32
  %173 = sext i16 %172 to i32
  %174 = add nsw i32 %166, %173
  %175 = load ptr, ptr %13, align 8, !tbaa !30
  %176 = load i32, ptr %12, align 4, !tbaa !13
  %177 = sext i32 %176 to i64
  %178 = getelementptr inbounds i16, ptr %175, i64 %177
  %179 = load i16, ptr %178, align 2, !tbaa !32
  %180 = sext i16 %179 to i32
  %181 = add nsw i32 %174, %180
  %182 = load ptr, ptr %13, align 8, !tbaa !30
  %183 = load i32, ptr %12, align 4, !tbaa !13
  %184 = add nsw i32 %183, 1
  %185 = sext i32 %184 to i64
  %186 = getelementptr inbounds i16, ptr %182, i64 %185
  %187 = load i16, ptr %186, align 2, !tbaa !32
  %188 = sext i16 %187 to i32
  %189 = add nsw i32 %181, %188
  %190 = ashr i32 %189, 2
  %191 = load ptr, ptr %6, align 8, !tbaa !30
  %192 = load i32, ptr %12, align 4, !tbaa !13
  %193 = sext i32 %192 to i64
  %194 = getelementptr inbounds i16, ptr %191, i64 %193
  %195 = load i16, ptr %194, align 2, !tbaa !32
  %196 = sext i16 %195 to i32
  %197 = add nsw i32 %196, %190
  %198 = trunc i32 %197 to i16
  store i16 %198, ptr %194, align 2, !tbaa !32
  br label %199

199:                                              ; preds = %160
  %200 = load i32, ptr %12, align 4, !tbaa !13
  %201 = add nsw i32 %200, 1
  store i32 %201, ptr %12, align 4, !tbaa !13
  br label %157, !llvm.loop !100

202:                                              ; preds = %157
  br label %203

203:                                              ; preds = %202
  %204 = load i32, ptr %11, align 4, !tbaa !13
  %205 = add nsw i32 %204, 1
  store i32 %205, ptr %11, align 4, !tbaa !13
  %206 = load i64, ptr %7, align 8, !tbaa !11
  %207 = load ptr, ptr %6, align 8, !tbaa !30
  %208 = getelementptr inbounds i16, ptr %207, i64 %206
  store ptr %208, ptr %6, align 8, !tbaa !30
  %209 = load i64, ptr %9, align 8, !tbaa !11
  %210 = load ptr, ptr %13, align 8, !tbaa !30
  %211 = getelementptr inbounds i16, ptr %210, i64 %209
  store ptr %211, ptr %13, align 8, !tbaa !30
  %212 = load i64, ptr %9, align 8, !tbaa !11
  %213 = load ptr, ptr %8, align 8, !tbaa !30
  %214 = getelementptr inbounds i16, ptr %213, i64 %212
  store ptr %214, ptr %8, align 8, !tbaa !30
  br label %153, !llvm.loop !101

215:                                              ; preds = %153
  br label %216

216:                                              ; preds = %5, %215, %148, %97, %51
  call void @llvm.lifetime.end.p0(i64 8, ptr %13) #4
  call void @llvm.lifetime.end.p0(i64 4, ptr %12) #4
  call void @llvm.lifetime.end.p0(i64 4, ptr %11) #4
  ret void
}