; Function Attrs: nofree norecurse nosync nounwind memory(argmem: readwrite) uwtable
define internal fastcc void @ivi_mc_4x4_delta(ptr noundef captures(none) %0, i64 noundef %1, ptr noundef readonly captures(none) %2, i64 noundef %3, i32 noundef %4) unnamed_addr #2 {
  switch i32 %4, label %.loopexit [
    i32 0, label %.preheader
    i32 1, label %.preheader82
    i32 2, label %.preheader85
    i32 3, label %.preheader88
  ]

.preheader:                                       ; preds = %5, %12
  %.068110 = phi i32 [ %13, %12 ], [ %4, %5 ]
  %.072109 = phi ptr [ %14, %12 ], [ %0, %5 ]
  %.076108 = phi ptr [ %15, %12 ], [ %2, %5 ]
  br label %6

6:                                                ; preds = %.preheader, %6
  %indvars.iv127 = phi i64 [ 0, %.preheader ], [ %indvars.iv.next128, %6 ]
  %7 = getelementptr inbounds nuw i16, ptr %.076108, i64 %indvars.iv127
  %8 = load i16, ptr %7, align 2, !tbaa !27
  %9 = getelementptr inbounds nuw i16, ptr %.072109, i64 %indvars.iv127
  %10 = load i16, ptr %9, align 2, !tbaa !27
  %11 = add i16 %10, %8
  store i16 %11, ptr %9, align 2, !tbaa !27
  %indvars.iv.next128 = add nuw nsw i64 %indvars.iv127, 1
  %exitcond130.not = icmp eq i64 %indvars.iv.next128, 4
  br i1 %exitcond130.not, label %12, label %6, !llvm.loop !85

12:                                               ; preds = %6
  %13 = add nuw nsw i32 %.068110, 1
  %14 = getelementptr inbounds i16, ptr %.072109, i64 %1
  %15 = getelementptr inbounds i16, ptr %.076108, i64 %3
  %exitcond131.not = icmp eq i32 %13, 4
  br i1 %exitcond131.not, label %.loopexit, label %.preheader, !llvm.loop !86

.preheader82:                                     ; preds = %5, %29
  %.169106 = phi i32 [ %30, %29 ], [ 0, %5 ]
  %.173105 = phi ptr [ %31, %29 ], [ %0, %5 ]
  %.177104 = phi ptr [ %32, %29 ], [ %2, %5 ]
  br label %16

16:                                               ; preds = %.preheader82, %16
  %indvars.iv122 = phi i64 [ 0, %.preheader82 ], [ %indvars.iv.next123, %16 ]
  %17 = getelementptr inbounds nuw i16, ptr %.177104, i64 %indvars.iv122
  %18 = load i16, ptr %17, align 2, !tbaa !27
  %19 = sext i16 %18 to i32
  %indvars.iv.next123 = add nuw nsw i64 %indvars.iv122, 1
  %20 = getelementptr inbounds nuw i16, ptr %.177104, i64 %indvars.iv.next123
  %21 = load i16, ptr %20, align 2, !tbaa !27
  %22 = sext i16 %21 to i32
  %23 = add nsw i32 %22, %19
  %24 = lshr i32 %23, 1
  %25 = getelementptr inbounds nuw i16, ptr %.173105, i64 %indvars.iv122
  %26 = load i16, ptr %25, align 2, !tbaa !27
  %27 = trunc i32 %24 to i16
  %28 = add i16 %26, %27
  store i16 %28, ptr %25, align 2, !tbaa !27
  %exitcond125.not = icmp eq i64 %indvars.iv.next123, 4
  br i1 %exitcond125.not, label %29, label %16, !llvm.loop !87

29:                                               ; preds = %16
  %30 = add nuw nsw i32 %.169106, 1
  %31 = getelementptr inbounds i16, ptr %.173105, i64 %1
  %32 = getelementptr inbounds i16, ptr %.177104, i64 %3
  %exitcond126.not = icmp eq i32 %30, 4
  br i1 %exitcond126.not, label %.loopexit, label %.preheader82, !llvm.loop !88

.preheader85:                                     ; preds = %5, %46
  %.pn111 = phi ptr [ %.0102, %46 ], [ %2, %5 ]
  %.270101 = phi i32 [ %47, %46 ], [ 0, %5 ]
  %.274100 = phi ptr [ %48, %46 ], [ %0, %5 ]
  %.0102 = getelementptr i16, ptr %.pn111, i64 %3
  br label %33

33:                                               ; preds = %.preheader85, %33
  %indvars.iv117 = phi i64 [ 0, %.preheader85 ], [ %indvars.iv.next118, %33 ]
  %34 = getelementptr inbounds nuw i16, ptr %.pn111, i64 %indvars.iv117
  %35 = load i16, ptr %34, align 2, !tbaa !27
  %36 = sext i16 %35 to i32
  %37 = getelementptr inbounds nuw i16, ptr %.0102, i64 %indvars.iv117
  %38 = load i16, ptr %37, align 2, !tbaa !27
  %39 = sext i16 %38 to i32
  %40 = add nsw i32 %39, %36
  %41 = lshr i32 %40, 1
  %42 = getelementptr inbounds nuw i16, ptr %.274100, i64 %indvars.iv117
  %43 = load i16, ptr %42, align 2, !tbaa !27
  %44 = trunc i32 %41 to i16
  %45 = add i16 %43, %44
  store i16 %45, ptr %42, align 2, !tbaa !27
  %indvars.iv.next118 = add nuw nsw i64 %indvars.iv117, 1
  %exitcond120.not = icmp eq i64 %indvars.iv.next118, 4
  br i1 %exitcond120.not, label %46, label %33, !llvm.loop !89

46:                                               ; preds = %33
  %47 = add nuw nsw i32 %.270101, 1
  %48 = getelementptr inbounds i16, ptr %.274100, i64 %1
  %exitcond121.not = icmp eq i32 %47, 4
  br i1 %exitcond121.not, label %.loopexit, label %.preheader85, !llvm.loop !90

.preheader88:                                     ; preds = %5, %70
  %.pn = phi ptr [ %.196, %70 ], [ %2, %5 ]
  %.37195 = phi i32 [ %71, %70 ], [ 0, %5 ]
  %.37594 = phi ptr [ %72, %70 ], [ %0, %5 ]
  %.196 = getelementptr i16, ptr %.pn, i64 %3
  br label %49

49:                                               ; preds = %.preheader88, %49
  %indvars.iv = phi i64 [ 0, %.preheader88 ], [ %indvars.iv.next, %49 ]
  %50 = getelementptr inbounds nuw i16, ptr %.pn, i64 %indvars.iv
  %51 = load i16, ptr %50, align 2, !tbaa !27
  %52 = sext i16 %51 to i32
  %indvars.iv.next = add nuw nsw i64 %indvars.iv, 1
  %53 = getelementptr inbounds nuw i16, ptr %.pn, i64 %indvars.iv.next
  %54 = load i16, ptr %53, align 2, !tbaa !27
  %55 = sext i16 %54 to i32
  %56 = add nsw i32 %55, %52
  %57 = getelementptr inbounds nuw i16, ptr %.196, i64 %indvars.iv
  %58 = load i16, ptr %57, align 2, !tbaa !27
  %59 = sext i16 %58 to i32
  %60 = add nsw i32 %56, %59
  %61 = getelementptr inbounds nuw i16, ptr %.196, i64 %indvars.iv.next
  %62 = load i16, ptr %61, align 2, !tbaa !27
  %63 = sext i16 %62 to i32
  %64 = add nsw i32 %60, %63
  %65 = lshr i32 %64, 2
  %66 = getelementptr inbounds nuw i16, ptr %.37594, i64 %indvars.iv
  %67 = load i16, ptr %66, align 2, !tbaa !27
  %68 = trunc i32 %65 to i16
  %69 = add i16 %67, %68
  store i16 %69, ptr %66, align 2, !tbaa !27
  %exitcond.not = icmp eq i64 %indvars.iv.next, 4
  br i1 %exitcond.not, label %70, label %49, !llvm.loop !91

70:                                               ; preds = %49
  %71 = add nuw nsw i32 %.37195, 1
  %72 = getelementptr inbounds i16, ptr %.37594, i64 %1
  %exitcond116.not = icmp eq i32 %71, 4
  br i1 %exitcond116.not, label %.loopexit, label %.preheader88, !llvm.loop !92

.loopexit:                                        ; preds = %70, %46, %29, %12, %5
  ret void
}